; Function Attrs: mustprogress uwtable
define noundef nonnull align 8 dereferenceable(48) ptr @_ZNK2mu10ParserBase10GetUsedVarB5cxx11Ev(ptr noundef nonnull align 8 dereferenceable(596) %0) local_unnamed_addr #7 align 2 personality ptr @__gxx_personality_v0 {
  %2 = getelementptr inbounds i8, ptr %0, i64 120
  %3 = load ptr, ptr %2, align 8
  invoke void @_ZN2mu17ParserTokenReader14IgnoreUndefVarEb(ptr noundef nonnull align 8 dereferenceable(400) %3, i1 noundef zeroext true)
          to label %4 unwind label %8

4:                                                ; preds = %1
  invoke void @_ZNK2mu10ParserBase9CreateRPNEv(ptr noundef nonnull align 8 dereferenceable(596) %0)
          to label %5 unwind label %8

5:                                                ; preds = %4
  %6 = getelementptr inbounds i8, ptr %0, i64 8
  store i64 ptrtoint (ptr @_ZNK2mu10ParserBase11ParseStringEv to i64), ptr %6, align 8
  %.repack6 = getelementptr inbounds i8, ptr %0, i64 16
  store i64 0, ptr %.repack6, align 8
  %7 = load ptr, ptr %2, align 8
  invoke void @_ZN2mu17ParserTokenReader14IgnoreUndefVarEb(ptr noundef nonnull align 8 dereferenceable(400) %7, i1 noundef zeroext false)
          to label %21 unwind label %8

8:                                                ; preds = %5, %4, %1
  %9 = landingpad { ptr, i32 }
          catch ptr @_ZTIN2mu11ParserErrorE
  %10 = extractvalue { ptr, i32 } %9, 1
  %11 = tail call i32 @llvm.eh.typeid.for(ptr nonnull @_ZTIN2mu11ParserErrorE) #23
  %12 = icmp eq i32 %10, %11
  br i1 %12, label %13, label %24

13:                                               ; preds = %8
  %14 = extractvalue { ptr, i32 } %9, 0
  %15 = tail call ptr @__cxa_begin_catch(ptr %14) #23
  %16 = getelementptr inbounds i8, ptr %0, i64 8
  store i64 ptrtoint (ptr @_ZNK2mu10ParserBase11ParseStringEv to i64), ptr %16, align 8
  %.repack7 = getelementptr inbounds i8, ptr %0, i64 16
  store i64 0, ptr %.repack7, align 8
  %17 = load ptr, ptr %2, align 8
  invoke void @_ZN2mu17ParserTokenReader14IgnoreUndefVarEb(ptr noundef nonnull align 8 dereferenceable(400) %17, i1 noundef zeroext false)
          to label %18 unwind label %19

18:                                               ; preds = %13
  invoke void @__cxa_rethrow() #32
          to label %28 unwind label %19

19:                                               ; preds = %18, %13
  %20 = landingpad { ptr, i32 }
          cleanup
  invoke void @__cxa_end_catch()
          to label %24 unwind label %25

21:                                               ; preds = %5
  %22 = load ptr, ptr %2, align 8
  %23 = tail call noundef nonnull align 8 dereferenceable(48) ptr @_ZN2mu17ParserTokenReader10GetUsedVarB5cxx11Ev(ptr noundef nonnull align 8 dereferenceable(400) %22)
  ret ptr %23

24:                                               ; preds = %19, %8
  %.merged = phi { ptr, i32 } [ %20, %19 ], [ %9, %8 ]
  resume { ptr, i32 } %.merged

25:                                               ; preds = %19
  %26 = landingpad { ptr, i32 }
          catch ptr null
  %27 = extractvalue { ptr, i32 } %26, 0
  tail call void @__clang_call_terminate(ptr %27) #29
  unreachable

28:                                               ; preds = %18
  unreachable
}